; Function Attrs: nounwind uwtable
define void @Nwk_ManSupportNodes_rec(ptr noundef %0, ptr noundef captures(none) %1) local_unnamed_addr #0 {
  %.val = load ptr, ptr %0, align 8
  %3 = getelementptr i8, ptr %0, i64 40
  %.val14 = load i32, ptr %3, align 8
  %4 = getelementptr i8, ptr %.val, i64 104
  %.val.val = load i32, ptr %4, align 8
  %.not = icmp eq i32 %.val14, %.val.val
  br i1 %.not, label %.critedge, label %5

5:                                                ; preds = %2
  store i32 %.val.val, ptr %3, align 8
  %6 = getelementptr i8, ptr %0, i64 32
  %.val15 = load i32, ptr %6, align 8
  %7 = and i32 %.val15, 7
  %.not16 = icmp eq i32 %7, 1
  br i1 %.not16, label %12, label %.preheader

.preheader:                                       ; preds = %5
  %8 = getelementptr inbounds nuw i8, ptr %0, i64 72
  %9 = getelementptr inbounds nuw i8, ptr %0, i64 60
  %10 = load i32, ptr %9, align 4
  %11 = icmp sgt i32 %10, 0
  br i1 %11, label %.lr.ph, label %.critedge

12:                                               ; preds = %5
  %13 = getelementptr inbounds nuw i8, ptr %1, i64 4
  %14 = load i32, ptr %13, align 4
  %15 = load i32, ptr %1, align 8
  %16 = icmp eq i32 %14, %15
  br i1 %16, label %17, label %.Vec_PtrGrow.exit11_crit_edge.i

.Vec_PtrGrow.exit11_crit_edge.i:                  ; preds = %12
  %.phi.trans.insert.i = getelementptr inbounds nuw i8, ptr %1, i64 8
  %.pre.i = load ptr, ptr %.phi.trans.insert.i, align 8
  br label %Vec_PtrPush.exit

17:                                               ; preds = %12
  %18 = icmp slt i32 %14, 16
  br i1 %18, label %19, label %27

19:                                               ; preds = %17
  %20 = getelementptr inbounds nuw i8, ptr %1, i64 8
  %21 = load ptr, ptr %20, align 8
  %.not9.i.i = icmp eq ptr %21, null
  br i1 %.not9.i.i, label %24, label %22

22:                                               ; preds = %19
  %23 = tail call dereferenceable_or_null(128) ptr @realloc(ptr noundef nonnull %21, i64 noundef 128) #11
  br label %Vec_PtrGrow.exit.i

24:                                               ; preds = %19
  %25 = tail call noalias dereferenceable_or_null(128) ptr @malloc(i64 noundef 128) #10
  br label %Vec_PtrGrow.exit.i

Vec_PtrGrow.exit.i:                               ; preds = %24, %22
  %26 = phi ptr [ %23, %22 ], [ %25, %24 ]
  store ptr %26, ptr %20, align 8
  store i32 16, ptr %1, align 8
  br label %Vec_PtrPush.exit

27:                                               ; preds = %17
  %28 = shl nuw nsw i32 %14, 1
  %29 = getelementptr inbounds nuw i8, ptr %1, i64 8
  %30 = load ptr, ptr %29, align 8
  %.not9.i10.i = icmp eq ptr %30, null
  %31 = zext nneg i32 %28 to i64
  %32 = shl nuw nsw i64 %31, 3
  br i1 %.not9.i10.i, label %35, label %33

33:                                               ; preds = %27
  %34 = tail call ptr @realloc(ptr noundef nonnull %30, i64 noundef %32) #11
  br label %37

35:                                               ; preds = %27
  %36 = tail call noalias ptr @malloc(i64 noundef %32) #10
  br label %37

37:                                               ; preds = %35, %33
  %38 = phi ptr [ %34, %33 ], [ %36, %35 ]
  store ptr %38, ptr %29, align 8
  store i32 %28, ptr %1, align 8
  br label %Vec_PtrPush.exit

Vec_PtrPush.exit:                                 ; preds = %.Vec_PtrGrow.exit11_crit_edge.i, %Vec_PtrGrow.exit.i, %37
  %39 = phi ptr [ %.pre.i, %.Vec_PtrGrow.exit11_crit_edge.i ], [ %38, %37 ], [ %26, %Vec_PtrGrow.exit.i ]
  %40 = load i32, ptr %13, align 4
  %41 = add nsw i32 %40, 1
  store i32 %41, ptr %13, align 4
  %42 = sext i32 %40 to i64
  %43 = getelementptr inbounds ptr, ptr %39, i64 %42
  store ptr %0, ptr %43, align 8
  br label %.critedge

.lr.ph:                                           ; preds = %.preheader, %47
  %indvars.iv = phi i64 [ %indvars.iv.next, %47 ], [ 0, %.preheader ]
  %44 = load ptr, ptr %8, align 8
  %45 = getelementptr inbounds nuw ptr, ptr %44, i64 %indvars.iv
  %46 = load ptr, ptr %45, align 8
  %.not13 = icmp eq ptr %46, null
  br i1 %.not13, label %.critedge, label %47

47:                                               ; preds = %.lr.ph
  tail call void @Nwk_ManSupportNodes_rec(ptr noundef nonnull %46, ptr noundef %1)
  %indvars.iv.next = add nuw nsw i64 %indvars.iv, 1
  %48 = load i32, ptr %9, align 4
  %49 = sext i32 %48 to i64
  %50 = icmp slt i64 %indvars.iv.next, %49
  br i1 %50, label %.lr.ph, label %.critedge, !llvm.loop !28

.critedge:                                        ; preds = %.lr.ph, %47, %.preheader, %2, %Vec_PtrPush.exit
  ret void
}